; Function Attrs: mustprogress uwtable
define internal fastcc void @_ZSt25__unguarded_linear_insertIN9__gnu_cxx17__normal_iteratorIPN5zxing3RefINS2_6qrcode13FinderPatternEEESt6vectorIS6_SaIS6_EEEENS0_5__ops14_Val_comp_iterINS4_12_GLOBAL__N_111YComparatorEEEEvT_T0_(ptr nocapture %0) unnamed_addr #0 personality ptr @__gxx_personality_v0 {
  %2 = load ptr, ptr %0, align 8
  %.not.i.i = icmp eq ptr %2, null
  br i1 %.not.i.i, label %_ZN5zxing3RefINS_6qrcode13FinderPatternEEC2ERKS3_.exit, label %3

3:                                                ; preds = %1
  %4 = getelementptr inbounds i8, ptr %2, i64 8
  %5 = load i32, ptr %4, align 8
  %6 = add i32 %5, 1
  store i32 %6, ptr %4, align 8
  br label %_ZN5zxing3RefINS_6qrcode13FinderPatternEEC2ERKS3_.exit

_ZN5zxing3RefINS_6qrcode13FinderPatternEEC2ERKS3_.exit: ; preds = %3, %1
  %7 = getelementptr inbounds i8, ptr %2, i64 8
  br label %8

8:                                                ; preds = %_ZN5zxing3RefINS_6qrcode13FinderPatternEEaSERKS3_.exit, %_ZN5zxing3RefINS_6qrcode13FinderPatternEEC2ERKS3_.exit
  %.sroa.013.0 = phi ptr [ %0, %_ZN5zxing3RefINS_6qrcode13FinderPatternEEC2ERKS3_.exit ], [ %.sroa.0.0, %_ZN5zxing3RefINS_6qrcode13FinderPatternEEaSERKS3_.exit ]
  %.sroa.0.0 = getelementptr inbounds i8, ptr %.sroa.013.0, i64 -8
  br i1 %.not.i.i, label %_ZN5zxing3RefINS_6qrcode13FinderPatternEEC2ERKS3_.exit.i, label %9

9:                                                ; preds = %8
  %10 = load i32, ptr %7, align 8
  %11 = add i32 %10, 1
  store i32 %11, ptr %7, align 8
  br label %_ZN5zxing3RefINS_6qrcode13FinderPatternEEC2ERKS3_.exit.i

_ZN5zxing3RefINS_6qrcode13FinderPatternEEC2ERKS3_.exit.i: ; preds = %9, %8
  %12 = load ptr, ptr %.sroa.0.0, align 8
  %.not.i.i5.i = icmp eq ptr %12, null
  br i1 %.not.i.i5.i, label %_ZN5zxing3RefINS_6qrcode13FinderPatternEEC2ERKS3_.exit8.i, label %13

13:                                               ; preds = %_ZN5zxing3RefINS_6qrcode13FinderPatternEEC2ERKS3_.exit.i
  %14 = getelementptr inbounds i8, ptr %12, i64 8
  %15 = load i32, ptr %14, align 8
  %16 = add i32 %15, 1
  store i32 %16, ptr %14, align 8
  br label %_ZN5zxing3RefINS_6qrcode13FinderPatternEEC2ERKS3_.exit8.i

_ZN5zxing3RefINS_6qrcode13FinderPatternEEC2ERKS3_.exit8.i: ; preds = %13, %_ZN5zxing3RefINS_6qrcode13FinderPatternEEC2ERKS3_.exit.i
  %17 = load ptr, ptr %2, align 8
  %18 = getelementptr inbounds i8, ptr %17, i64 24
  %19 = load ptr, ptr %18, align 8
  %20 = invoke noundef float %19(ptr noundef nonnull align 8 dereferenceable(20) %2)
          to label %.noexc.i unwind label %42

.noexc.i:                                         ; preds = %_ZN5zxing3RefINS_6qrcode13FinderPatternEEC2ERKS3_.exit8.i
  %21 = load ptr, ptr %12, align 8
  %22 = getelementptr inbounds i8, ptr %21, i64 24
  %23 = load ptr, ptr %22, align 8
  %24 = invoke noundef float %23(ptr noundef nonnull align 8 dereferenceable(20) %12)
          to label %26 unwind label %.thread.i

.thread.i:                                        ; preds = %.noexc.i
  %25 = landingpad { ptr, i32 }
          cleanup
  br label %44

26:                                               ; preds = %.noexc.i
  %27 = getelementptr inbounds i8, ptr %12, i64 8
  %28 = load i32, ptr %27, align 8
  %29 = add i32 %28, -1
  store i32 %29, ptr %27, align 8
  %30 = icmp eq i32 %29, 0
  br i1 %30, label %31, label %_ZN5zxing3RefINS_6qrcode13FinderPatternEED2Ev.exit.i

31:                                               ; preds = %26
  store i32 -559026175, ptr %27, align 8
  %32 = load ptr, ptr %12, align 8
  %33 = getelementptr inbounds i8, ptr %32, i64 8
  %34 = load ptr, ptr %33, align 8
  tail call void %34(ptr noundef nonnull align 8 dereferenceable(12) %12) #22
  br label %_ZN5zxing3RefINS_6qrcode13FinderPatternEED2Ev.exit.i

_ZN5zxing3RefINS_6qrcode13FinderPatternEED2Ev.exit.i: ; preds = %31, %26
  %35 = load i32, ptr %7, align 8
  %36 = add i32 %35, -1
  store i32 %36, ptr %7, align 8
  %37 = icmp eq i32 %36, 0
  br i1 %37, label %38, label %61

38:                                               ; preds = %_ZN5zxing3RefINS_6qrcode13FinderPatternEED2Ev.exit.i
  store i32 -559026175, ptr %7, align 8
  %39 = load ptr, ptr %2, align 8
  %40 = getelementptr inbounds i8, ptr %39, i64 8
  %41 = load ptr, ptr %40, align 8
  tail call void %41(ptr noundef nonnull align 8 dereferenceable(12) %2) #22
  br label %61

42:                                               ; preds = %_ZN5zxing3RefINS_6qrcode13FinderPatternEEC2ERKS3_.exit8.i
  %43 = landingpad { ptr, i32 }
          cleanup
  br i1 %.not.i.i5.i, label %_ZN5zxing3RefINS_6qrcode13FinderPatternEED2Ev.exit13.i, label %44

44:                                               ; preds = %42, %.thread.i
  %45 = phi { ptr, i32 } [ %25, %.thread.i ], [ %43, %42 ]
  %46 = getelementptr inbounds i8, ptr %12, i64 8
  %47 = load i32, ptr %46, align 8
  %48 = add i32 %47, -1
  store i32 %48, ptr %46, align 8
  %49 = icmp eq i32 %48, 0
  br i1 %49, label %50, label %_ZN5zxing3RefINS_6qrcode13FinderPatternEED2Ev.exit13.i

50:                                               ; preds = %44
  store i32 -559026175, ptr %46, align 8
  %51 = load ptr, ptr %12, align 8
  %52 = getelementptr inbounds i8, ptr %51, i64 8
  %53 = load ptr, ptr %52, align 8
  tail call void %53(ptr noundef nonnull align 8 dereferenceable(12) %12) #22
  br label %_ZN5zxing3RefINS_6qrcode13FinderPatternEED2Ev.exit13.i

_ZN5zxing3RefINS_6qrcode13FinderPatternEED2Ev.exit13.i: ; preds = %50, %44, %42
  %.pn.i = phi { ptr, i32 } [ %43, %42 ], [ %45, %44 ], [ %45, %50 ]
  %54 = load i32, ptr %7, align 8
  %55 = add i32 %54, -1
  store i32 %55, ptr %7, align 8
  %56 = icmp eq i32 %55, 0
  br i1 %56, label %57, label %.body

57:                                               ; preds = %_ZN5zxing3RefINS_6qrcode13FinderPatternEED2Ev.exit13.i
  store i32 -559026175, ptr %7, align 8
  %58 = load ptr, ptr %2, align 8
  %59 = getelementptr inbounds i8, ptr %58, i64 8
  %60 = load ptr, ptr %59, align 8
  tail call void %60(ptr noundef nonnull align 8 dereferenceable(12) %2) #22
  %.pre = load i32, ptr %7, align 8
  br label %.body

61:                                               ; preds = %38, %_ZN5zxing3RefINS_6qrcode13FinderPatternEED2Ev.exit.i
  %62 = fcmp olt float %20, %24
  br i1 %62, label %63, label %87

63:                                               ; preds = %61
  %64 = load ptr, ptr %.sroa.0.0, align 8
  %.not.i.i1 = icmp eq ptr %64, null
  br i1 %.not.i.i1, label %69, label %65

65:                                               ; preds = %63
  %66 = getelementptr inbounds i8, ptr %64, i64 8
  %67 = load i32, ptr %66, align 8
  %68 = add i32 %67, 1
  store i32 %68, ptr %66, align 8
  br label %69

69:                                               ; preds = %65, %63
  %70 = load ptr, ptr %.sroa.013.0, align 8
  %.not5.i.i2 = icmp eq ptr %70, null
  br i1 %.not5.i.i2, label %_ZN5zxing3RefINS_6qrcode13FinderPatternEEaSERKS3_.exit, label %71

71:                                               ; preds = %69
  %72 = getelementptr inbounds i8, ptr %70, i64 8
  %73 = load i32, ptr %72, align 8
  %74 = add i32 %73, -1
  store i32 %74, ptr %72, align 8
  %75 = icmp eq i32 %74, 0
  br i1 %75, label %76, label %_ZN5zxing3RefINS_6qrcode13FinderPatternEEaSERKS3_.exit

76:                                               ; preds = %71
  store i32 -559026175, ptr %72, align 8
  %77 = load ptr, ptr %70, align 8
  %78 = getelementptr inbounds i8, ptr %77, i64 8
  %79 = load ptr, ptr %78, align 8
  tail call void %79(ptr noundef nonnull align 8 dereferenceable(12) %70) #22
  br label %_ZN5zxing3RefINS_6qrcode13FinderPatternEEaSERKS3_.exit

_ZN5zxing3RefINS_6qrcode13FinderPatternEEaSERKS3_.exit: ; preds = %69, %71, %76
  store ptr %64, ptr %.sroa.013.0, align 8
  br label %8, !llvm.loop !158

.body:                                            ; preds = %57, %_ZN5zxing3RefINS_6qrcode13FinderPatternEED2Ev.exit13.i
  %80 = phi i32 [ %.pre, %57 ], [ %55, %_ZN5zxing3RefINS_6qrcode13FinderPatternEED2Ev.exit13.i ]
  %81 = add i32 %80, -1
  store i32 %81, ptr %7, align 8
  %82 = icmp eq i32 %81, 0
  br i1 %82, label %83, label %_ZN5zxing3RefINS_6qrcode13FinderPatternEED2Ev.exit

83:                                               ; preds = %.body
  store i32 -559026175, ptr %7, align 8
  %84 = load ptr, ptr %2, align 8
  %85 = getelementptr inbounds i8, ptr %84, i64 8
  %86 = load ptr, ptr %85, align 8
  tail call void %86(ptr noundef nonnull align 8 dereferenceable(12) %2) #22
  br label %_ZN5zxing3RefINS_6qrcode13FinderPatternEED2Ev.exit

_ZN5zxing3RefINS_6qrcode13FinderPatternEED2Ev.exit: ; preds = %.body, %83
  resume { ptr, i32 } %.pn.i

87:                                               ; preds = %61
  %88 = load i32, ptr %7, align 8
  %89 = add i32 %88, 1
  store i32 %89, ptr %7, align 8
  %90 = load ptr, ptr %.sroa.013.0, align 8
  %.not5.i.i4 = icmp eq ptr %90, null
  br i1 %.not5.i.i4, label %100, label %91

91:                                               ; preds = %87
  %92 = getelementptr inbounds i8, ptr %90, i64 8
  %93 = load i32, ptr %92, align 8
  %94 = add i32 %93, -1
  store i32 %94, ptr %92, align 8
  %95 = icmp eq i32 %94, 0
  br i1 %95, label %96, label %100

96:                                               ; preds = %91
  store i32 -559026175, ptr %92, align 8
  %97 = load ptr, ptr %90, align 8
  %98 = getelementptr inbounds i8, ptr %97, i64 8
  %99 = load ptr, ptr %98, align 8
  tail call void %99(ptr noundef nonnull align 8 dereferenceable(12) %90) #22
  br label %100

100:                                              ; preds = %96, %91, %87
  store ptr %2, ptr %.sroa.013.0, align 8
  %101 = load i32, ptr %7, align 8
  %102 = add i32 %101, -1
  store i32 %102, ptr %7, align 8
  %103 = icmp eq i32 %102, 0
  br i1 %103, label %104, label %_ZN5zxing3RefINS_6qrcode13FinderPatternEED2Ev.exit7

104:                                              ; preds = %100
  store i32 -559026175, ptr %7, align 8
  %105 = load ptr, ptr %2, align 8
  %106 = getelementptr inbounds i8, ptr %105, i64 8
  %107 = load ptr, ptr %106, align 8
  tail call void %107(ptr noundef nonnull align 8 dereferenceable(12) %2) #22
  br label %_ZN5zxing3RefINS_6qrcode13FinderPatternEED2Ev.exit7

_ZN5zxing3RefINS_6qrcode13FinderPatternEED2Ev.exit7: ; preds = %100, %104
  ret void
}